target datalayout = "e-m:e-p270:32:32-p271:32:32-p272:64:64-i64:64-i128:128-f80:128-n8:16:32:64-S128"
target triple = "x86_64-pc-linux-gnu"

%"class.std::vector" = type { %"struct.std::_Vector_base" }
%"struct.std::_Vector_base" = type { %"struct.std::_Vector_base<std::__cxx11::basic_string<char>, std::allocator<std::__cxx11::basic_string<char>>>::_Vector_impl" }
%"struct.std::_Vector_base<std::__cxx11::basic_string<char>, std::allocator<std::__cxx11::basic_string<char>>>::_Vector_impl" = type { %"struct.std::_Vector_base<std::__cxx11::basic_string<char>, std::allocator<std::__cxx11::basic_string<char>>>::_Vector_impl_data" }
%"struct.std::_Vector_base<std::__cxx11::basic_string<char>, std::allocator<std::__cxx11::basic_string<char>>>::_Vector_impl_data" = type { ptr, ptr, ptr }
%"class.colvar::cvc" = type { %class.colvarparse, %class.colvardeps, %"class.std::__cxx11::basic_string", %"class.std::__cxx11::basic_string", double, i32, double, double, %"class.std::vector.54", i8, %"class.std::vector", %class.colvarvalue, %class.colvarvalue, %class.colvarvalue, %class.colvarvalue, %class.colvarvalue, %class.colvarvalue, double }
%class.colvarparse = type { %class.colvarparams, %"class.std::__cxx11::basic_string", %"class.std::__cxx11::basic_string", %"class.std::__cxx11::list", %"class.std::map.34", %"class.std::__cxx11::list.39", %"class.std::__cxx11::list.39", %"class.std::__cxx11::basic_string" }
%class.colvarparams = type { ptr, %"class.std::map", %"class.std::map.23" }
%"class.std::map" = type { %"class.std::_Rb_tree" }
%"class.std::_Rb_tree" = type { %"struct.std::_Rb_tree<std::__cxx11::basic_string<char>, std::pair<const std::__cxx11::basic_string<char>, const void *>, std::_Select1st<std::pair<const std::__cxx11::basic_string<char>, const void *>>, std::less<std::__cxx11::basic_string<char>>>::_Rb_tree_impl" }
%"struct.std::_Rb_tree<std::__cxx11::basic_string<char>, std::pair<const std::__cxx11::basic_string<char>, const void *>, std::_Select1st<std::pair<const std::__cxx11::basic_string<char>, const void *>>, std::less<std::__cxx11::basic_string<char>>>::_Rb_tree_impl" = type { [8 x i8], %"struct.std::_Rb_tree_header" }
%"struct.std::_Rb_tree_header" = type { %"struct.std::_Rb_tree_node_base", i64 }
%"struct.std::_Rb_tree_node_base" = type { i32, ptr, ptr, ptr }
%"class.std::map.23" = type { %"class.std::_Rb_tree.24" }
%"class.std::_Rb_tree.24" = type { %"struct.std::_Rb_tree<std::__cxx11::basic_string<char>, std::pair<const std::__cxx11::basic_string<char>, const colvarvalue *>, std::_Select1st<std::pair<const std::__cxx11::basic_string<char>, const colvarvalue *>>, std::less<std::__cxx11::basic_string<char>>>::_Rb_tree_impl" }
%"struct.std::_Rb_tree<std::__cxx11::basic_string<char>, std::pair<const std::__cxx11::basic_string<char>, const colvarvalue *>, std::_Select1st<std::pair<const std::__cxx11::basic_string<char>, const colvarvalue *>>, std::less<std::__cxx11::basic_string<char>>>::_Rb_tree_impl" = type { [8 x i8], %"struct.std::_Rb_tree_header" }
%"class.std::__cxx11::list" = type { %"class.std::__cxx11::_List_base" }
%"class.std::__cxx11::_List_base" = type { %"struct.std::__cxx11::_List_base<std::__cxx11::basic_string<char>, std::allocator<std::__cxx11::basic_string<char>>>::_List_impl" }
%"struct.std::__cxx11::_List_base<std::__cxx11::basic_string<char>, std::allocator<std::__cxx11::basic_string<char>>>::_List_impl" = type { %"struct.std::__detail::_List_node_header" }
%"struct.std::__detail::_List_node_header" = type { %"struct.std::__detail::_List_node_base", i64 }
%"struct.std::__detail::_List_node_base" = type { ptr, ptr }
%"class.std::map.34" = type { %"class.std::_Rb_tree.35" }
%"class.std::_Rb_tree.35" = type { %"struct.std::_Rb_tree<std::__cxx11::basic_string<char>, std::pair<const std::__cxx11::basic_string<char>, colvarparse::key_set_mode>, std::_Select1st<std::pair<const std::__cxx11::basic_string<char>, colvarparse::key_set_mode>>, std::less<std::__cxx11::basic_string<char>>>::_Rb_tree_impl" }
%"struct.std::_Rb_tree<std::__cxx11::basic_string<char>, std::pair<const std::__cxx11::basic_string<char>, colvarparse::key_set_mode>, std::_Select1st<std::pair<const std::__cxx11::basic_string<char>, colvarparse::key_set_mode>>, std::less<std::__cxx11::basic_string<char>>>::_Rb_tree_impl" = type { [8 x i8], %"struct.std::_Rb_tree_header" }
%"class.std::__cxx11::list.39" = type { %"class.std::__cxx11::_List_base.40" }
%"class.std::__cxx11::_List_base.40" = type { %"struct.std::__cxx11::_List_base<unsigned long, std::allocator<unsigned long>>::_List_impl" }
%"struct.std::__cxx11::_List_base<unsigned long, std::allocator<unsigned long>>::_List_impl" = type { %"struct.std::__detail::_List_node_header" }
%class.colvardeps = type { ptr, %"class.std::__cxx11::basic_string", i32, %"class.std::vector.44", %"class.std::vector.49", %"class.std::vector.49" }
%"class.std::vector.44" = type { %"struct.std::_Vector_base.45" }
%"struct.std::_Vector_base.45" = type { %"struct.std::_Vector_base<colvardeps::feature_state, std::allocator<colvardeps::feature_state>>::_Vector_impl" }
%"struct.std::_Vector_base<colvardeps::feature_state, std::allocator<colvardeps::feature_state>>::_Vector_impl" = type { %"struct.std::_Vector_base<colvardeps::feature_state, std::allocator<colvardeps::feature_state>>::_Vector_impl_data" }
%"struct.std::_Vector_base<colvardeps::feature_state, std::allocator<colvardeps::feature_state>>::_Vector_impl_data" = type { ptr, ptr, ptr }
%"class.std::vector.49" = type { %"struct.std::_Vector_base.50" }
%"struct.std::_Vector_base.50" = type { %"struct.std::_Vector_base<colvardeps *, std::allocator<colvardeps *>>::_Vector_impl" }
%"struct.std::_Vector_base<colvardeps *, std::allocator<colvardeps *>>::_Vector_impl" = type { %"struct.std::_Vector_base<colvardeps *, std::allocator<colvardeps *>>::_Vector_impl_data" }
%"struct.std::_Vector_base<colvardeps *, std::allocator<colvardeps *>>::_Vector_impl_data" = type { ptr, ptr, ptr }
%"class.std::__cxx11::basic_string" = type { %"struct.std::__cxx11::basic_string<char>::_Alloc_hider", i64, %union.anon }
%"struct.std::__cxx11::basic_string<char>::_Alloc_hider" = type { ptr }
%union.anon = type { i64, [8 x i8] }
%"class.std::vector.54" = type { %"struct.std::_Vector_base.55" }
%"struct.std::_Vector_base.55" = type { %"struct.std::_Vector_base<colvarmodule::atom_group *, std::allocator<colvarmodule::atom_group *>>::_Vector_impl" }
%"struct.std::_Vector_base<colvarmodule::atom_group *, std::allocator<colvarmodule::atom_group *>>::_Vector_impl" = type { %"struct.std::_Vector_base<colvarmodule::atom_group *, std::allocator<colvarmodule::atom_group *>>::_Vector_impl_data" }
%"struct.std::_Vector_base<colvarmodule::atom_group *, std::allocator<colvarmodule::atom_group *>>::_Vector_impl_data" = type { ptr, ptr, ptr }
%class.colvarvalue = type { i32, double, %"class.colvarmodule::rvector", %"class.colvarmodule::quaternion", %"class.colvarmodule::vector1d", %"class.std::vector.10", %"class.std::vector.15", %"class.std::vector.15" }
%"class.colvarmodule::rvector" = type { double, double, double }
%"class.colvarmodule::quaternion" = type { double, double, double, double }
%"class.colvarmodule::vector1d" = type { %"class.std::vector.5" }
%"class.std::vector.5" = type { %"struct.std::_Vector_base.6" }
%"struct.std::_Vector_base.6" = type { %"struct.std::_Vector_base<double, std::allocator<double>>::_Vector_impl" }
%"struct.std::_Vector_base<double, std::allocator<double>>::_Vector_impl" = type { %"struct.std::_Vector_base<double, std::allocator<double>>::_Vector_impl_data" }
%"struct.std::_Vector_base<double, std::allocator<double>>::_Vector_impl_data" = type { ptr, ptr, ptr }
%"class.std::vector.10" = type { %"struct.std::_Vector_base.11" }
%"struct.std::_Vector_base.11" = type { %"struct.std::_Vector_base<colvarvalue::Type, std::allocator<colvarvalue::Type>>::_Vector_impl" }
%"struct.std::_Vector_base<colvarvalue::Type, std::allocator<colvarvalue::Type>>::_Vector_impl" = type { %"struct.std::_Vector_base<colvarvalue::Type, std::allocator<colvarvalue::Type>>::_Vector_impl_data" }
%"struct.std::_Vector_base<colvarvalue::Type, std::allocator<colvarvalue::Type>>::_Vector_impl_data" = type { ptr, ptr, ptr }
%"class.std::vector.15" = type { %"struct.std::_Vector_base.16" }
%"struct.std::_Vector_base.16" = type { %"struct.std::_Vector_base<int, std::allocator<int>>::_Vector_impl" }
%"struct.std::_Vector_base<int, std::allocator<int>>::_Vector_impl" = type { %"struct.std::_Vector_base<int, std::allocator<int>>::_Vector_impl_data" }
%"struct.std::_Vector_base<int, std::allocator<int>>::_Vector_impl_data" = type { ptr, ptr, ptr }
%"class.colvar::polar_theta" = type { %"class.colvar::cvc", ptr, double, double, double }

; Function Attrs: inlinehint mustprogress nounwind uwtable
define linkonce_odr void @_ZN12colvarmodule7rvector3setEddd(ptr noundef nonnull align 8 dereferenceable(24) %0, double noundef %1, double noundef %2, double noundef %3) #8 comdat align 2 {
  %5 = alloca ptr, align 8
  %6 = alloca double, align 8
  %7 = alloca double, align 8
  %8 = alloca double, align 8
  store ptr %0, ptr %5, align 8, !tbaa !169
  store double %1, ptr %6, align 8, !tbaa !95
  store double %2, ptr %7, align 8, !tbaa !95
  store double %3, ptr %8, align 8, !tbaa !95
  %9 = load ptr, ptr %5, align 8
  %10 = load double, ptr %6, align 8, !tbaa !95
  %11 = getelementptr inbounds nuw %"class.colvarmodule::rvector", ptr %9, i32 0, i32 0
  store double %10, ptr %11, align 8, !tbaa !159
  %12 = load double, ptr %7, align 8, !tbaa !95
  %13 = getelementptr inbounds nuw %"class.colvarmodule::rvector", ptr %9, i32 0, i32 1
  store double %12, ptr %13, align 8, !tbaa !161
  %14 = load double, ptr %8, align 8, !tbaa !95
  %15 = getelementptr inbounds nuw %"class.colvarmodule::rvector", ptr %9, i32 0, i32 2
  store double %14, ptr %15, align 8, !tbaa !94
  ret void
}

; Function Attrs: inlinehint mustprogress nounwind uwtable
define linkonce_odr noundef double @_ZN12colvarmodule3sinERKd(ptr noundef nonnull align 8 dereferenceable(8) %0) #8 comdat align 2 {
  %2 = alloca ptr, align 8
  store ptr %0, ptr %2, align 8, !tbaa !214
  %3 = load ptr, ptr %2, align 8, !tbaa !214
  %4 = load double, ptr %3, align 8, !tbaa !95
  %5 = call double @sin(double noundef %4) #17, !tbaa !11
  ret double %5
}

; Function Attrs: inlinehint mustprogress nounwind uwtable
define linkonce_odr noundef double @_ZN12colvarmodule3cosERKd(ptr noundef nonnull align 8 dereferenceable(8) %0) #8 comdat align 2 {
  %2 = alloca ptr, align 8
  store ptr %0, ptr %2, align 8, !tbaa !214
  %3 = load ptr, ptr %2, align 8, !tbaa !214
  %4 = load double, ptr %3, align 8, !tbaa !95
  %5 = call double @cos(double noundef %4) #17, !tbaa !11
  ret double %5
}

; Function Attrs: inlinehint mustprogress uwtable
define linkonce_odr void @_ZN12colvarmodule7rvectorC2Eddd(ptr noundef nonnull align 8 dereferenceable(24) %0, double noundef %1, double noundef %2, double noundef %3) unnamed_addr #6 comdat align 2 {
  %5 = alloca ptr, align 8
  %6 = alloca double, align 8
  %7 = alloca double, align 8
  %8 = alloca double, align 8
  store ptr %0, ptr %5, align 8, !tbaa !169
  store double %1, ptr %6, align 8, !tbaa !95
  store double %2, ptr %7, align 8, !tbaa !95
  store double %3, ptr %8, align 8, !tbaa !95
  %9 = load ptr, ptr %5, align 8
  %10 = load double, ptr %6, align 8, !tbaa !95
  %11 = load double, ptr %7, align 8, !tbaa !95
  %12 = load double, ptr %8, align 8, !tbaa !95
  call void @_ZN12colvarmodule7rvector3setEddd(ptr noundef nonnull align 8 dereferenceable(24) %9, double noundef %10, double noundef %11, double noundef %12)
  ret void
}

; Function Attrs: mustprogress uwtable
define void @_ZN6colvar11polar_theta14calc_gradientsEv(ptr noundef nonnull align 8 dereferenceable(1640) %0) unnamed_addr #2 align 2 {
  %2 = alloca ptr, align 8
  %3 = alloca %"class.colvarmodule::rvector", align 8
  %4 = alloca %"class.colvarmodule::rvector", align 8
  store ptr %0, ptr %2, align 8, !tbaa !101
  %5 = load ptr, ptr %2, align 8
  %6 = getelementptr inbounds nuw %"class.colvar::polar_theta", ptr %5, i32 0, i32 2
  %7 = load double, ptr %6, align 8, !tbaa !105
  %8 = fcmp oeq double %7, 0.000000e+00
  br i1 %8, label %9, label %12

9:                                                ; preds = %1
  %10 = getelementptr inbounds nuw %"class.colvar::polar_theta", ptr %5, i32 0, i32 1
  %11 = load ptr, ptr %10, align 8, !tbaa !103
  call void @llvm.lifetime.start.p0(i64 24, ptr %3) #17
  call void @_ZN12colvarmodule7rvectorC2Eddd(ptr noundef nonnull align 8 dereferenceable(24) %3, double noundef 0.000000e+00, double noundef 0.000000e+00, double noundef 0.000000e+00)
  call void @_ZN12colvarmodule10atom_group21set_weighted_gradientERKNS_7rvectorE(ptr noundef nonnull align 8 dereferenceable(1496) %11, ptr noundef nonnull align 8 dereferenceable(24) %3)
  call void @llvm.lifetime.end.p0(i64 24, ptr %3) #17
  br label %40

12:                                               ; preds = %1
  %13 = getelementptr inbounds nuw %"class.colvar::polar_theta", ptr %5, i32 0, i32 1
  %14 = load ptr, ptr %13, align 8, !tbaa !103
  call void @llvm.lifetime.start.p0(i64 24, ptr %4) #17
  %15 = getelementptr inbounds nuw %"class.colvar::polar_theta", ptr %5, i32 0, i32 3
  %16 = call noundef double @_ZN12colvarmodule3cosERKd(ptr noundef nonnull align 8 dereferenceable(8) %15)
  %17 = fmul double 0x404CA5DC1A63C1F8, %16
  %18 = getelementptr inbounds nuw %"class.colvar::polar_theta", ptr %5, i32 0, i32 4
  %19 = call noundef double @_ZN12colvarmodule3cosERKd(ptr noundef nonnull align 8 dereferenceable(8) %18)
  %20 = fmul double %17, %19
  %21 = getelementptr inbounds nuw %"class.colvar::polar_theta", ptr %5, i32 0, i32 2
  %22 = load double, ptr %21, align 8, !tbaa !105
  %23 = fdiv double %20, %22
  %24 = getelementptr inbounds nuw %"class.colvar::polar_theta", ptr %5, i32 0, i32 3
  %25 = call noundef double @_ZN12colvarmodule3cosERKd(ptr noundef nonnull align 8 dereferenceable(8) %24)
  %26 = fmul double 0x404CA5DC1A63C1F8, %25
  %27 = getelementptr inbounds nuw %"class.colvar::polar_theta", ptr %5, i32 0, i32 4
  %28 = call noundef double @_ZN12colvarmodule3sinERKd(ptr noundef nonnull align 8 dereferenceable(8) %27)
  %29 = fmul double %26, %28
  %30 = getelementptr inbounds nuw %"class.colvar::polar_theta", ptr %5, i32 0, i32 2
  %31 = load double, ptr %30, align 8, !tbaa !105
  %32 = fdiv double %29, %31
  %33 = getelementptr inbounds nuw %"class.colvar::polar_theta", ptr %5, i32 0, i32 3
  %34 = call noundef double @_ZN12colvarmodule3sinERKd(ptr noundef nonnull align 8 dereferenceable(8) %33)
  %35 = fneg double %34
  %36 = fmul double 0x404CA5DC1A63C1F8, %35
  %37 = getelementptr inbounds nuw %"class.colvar::polar_theta", ptr %5, i32 0, i32 2
  %38 = load double, ptr %37, align 8, !tbaa !105
  %39 = fdiv double %36, %38
  call void @_ZN12colvarmodule7rvectorC2Eddd(ptr noundef nonnull align 8 dereferenceable(24) %4, double noundef %23, double noundef %32, double noundef %39)
  call void @_ZN12colvarmodule10atom_group21set_weighted_gradientERKNS_7rvectorE(ptr noundef nonnull align 8 dereferenceable(1496) %14, ptr noundef nonnull align 8 dereferenceable(24) %4)
  call void @llvm.lifetime.end.p0(i64 24, ptr %4) #17
  br label %40

40:                                               ; preds = %12, %9
  ret void
}