; Function Attrs: mustprogress uwtable
define void @_ZN6colvar11polar_theta14calc_gradientsEv(ptr noundef nonnull readonly align 8 captures(none) dereferenceable(1640) %0) unnamed_addr #2 align 2 {
  %2 = alloca %"class.colvarmodule::rvector", align 8
  %3 = alloca %"class.colvarmodule::rvector", align 8
  %4 = getelementptr inbounds nuw i8, ptr %0, i64 1616
  %5 = load double, ptr %4, align 8, !tbaa !98
  %6 = fcmp oeq double %5, 0.000000e+00
  %7 = getelementptr inbounds nuw i8, ptr %0, i64 1608
  %8 = load ptr, ptr %7, align 8, !tbaa !96
  br i1 %6, label %9, label %10

9:                                                ; preds = %1
  call void @llvm.lifetime.start.p0(i64 24, ptr nonnull %2) #24
  call void @llvm.memset.p0.i64(ptr noundef nonnull align 8 dereferenceable(24) %2, i8 0, i64 24, i1 false)
  call void @_ZN12colvarmodule10atom_group21set_weighted_gradientERKNS_7rvectorE(ptr noundef nonnull align 8 dereferenceable(1496) %8, ptr noundef nonnull align 8 dereferenceable(24) %2)
  call void @llvm.lifetime.end.p0(i64 24, ptr nonnull %2) #24
  br label %30

10:                                               ; preds = %1
  call void @llvm.lifetime.start.p0(i64 24, ptr nonnull %3) #24
  %11 = getelementptr inbounds nuw i8, ptr %0, i64 1624
  %12 = load double, ptr %11, align 8, !tbaa !87
  %13 = tail call noundef double @cos(double noundef %12) #24, !tbaa !89
  %14 = fmul double %13, 0x404CA5DC1A63C1F8
  %15 = getelementptr inbounds nuw i8, ptr %0, i64 1632
  %16 = load double, ptr %15, align 8, !tbaa !87
  %17 = tail call noundef double @cos(double noundef %16) #24, !tbaa !89
  %18 = fmul double %14, %17
  %19 = fdiv double %18, %5
  %20 = tail call noundef double @cos(double noundef %12) #24, !tbaa !89
  %21 = fmul double %20, 0x404CA5DC1A63C1F8
  %22 = tail call noundef double @sin(double noundef %16) #24, !tbaa !89
  %23 = fmul double %21, %22
  %24 = fdiv double %23, %5
  %25 = tail call noundef double @sin(double noundef %12) #24, !tbaa !89
  %26 = fmul double %25, 0xC04CA5DC1A63C1F8
  %27 = fdiv double %26, %5
  store double %19, ptr %3, align 8, !tbaa !93
  %28 = getelementptr inbounds nuw i8, ptr %3, i64 8
  store double %24, ptr %28, align 8, !tbaa !94
  %29 = getelementptr inbounds nuw i8, ptr %3, i64 16
  store double %27, ptr %29, align 8, !tbaa !95
  call void @_ZN12colvarmodule10atom_group21set_weighted_gradientERKNS_7rvectorE(ptr noundef nonnull align 8 dereferenceable(1496) %8, ptr noundef nonnull align 8 dereferenceable(24) %3)
  call void @llvm.lifetime.end.p0(i64 24, ptr nonnull %3) #24
  br label %30

30:                                               ; preds = %10, %9
  ret void
}